; Function Attrs: nounwind uwtable
define void @Abc_NtkLutminConstruct(ptr noundef %0, ptr noundef %1, i32 noundef %2, i32 noundef %3) local_unnamed_addr #0 {
  %5 = tail call ptr @Abc_NtkDfs(ptr noundef %0, i32 noundef 0) #20
  %6 = getelementptr i8, ptr %5, i64 4
  %.val3034 = load i32, ptr %6, align 4, !tbaa !3
  %7 = icmp sgt i32 %.val3034, 0
  br i1 %7, label %.lr.ph36, label %.critedge

.lr.ph36:                                         ; preds = %4
  %8 = getelementptr i8, ptr %5, i64 8
  br label %9

9:                                                ; preds = %.lr.ph36, %.critedge2
  %indvars.iv38 = phi i64 [ 0, %.lr.ph36 ], [ %indvars.iv.next39, %.critedge2 ]
  %.val31 = load ptr, ptr %8, align 8, !tbaa !31
  %10 = getelementptr inbounds nuw ptr, ptr %.val31, i64 %indvars.iv38
  %11 = load ptr, ptr %10, align 8, !tbaa !33
  %12 = getelementptr i8, ptr %11, i64 28
  %.val27 = load i32, ptr %12, align 4, !tbaa !9
  %.not = icmp sgt i32 %.val27, %2
  %13 = getelementptr inbounds nuw i8, ptr %11, i64 64
  br i1 %.not, label %31, label %14

14:                                               ; preds = %9
  %15 = tail call ptr @Abc_NtkDupObj(ptr noundef %1, ptr noundef nonnull %11, i32 noundef 0) #20
  store ptr %15, ptr %13, align 8, !tbaa !50
  %.val32 = load i32, ptr %12, align 4, !tbaa !9
  %16 = icmp sgt i32 %.val32, 0
  br i1 %16, label %.lr.ph, label %.critedge2

.lr.ph:                                           ; preds = %14
  %17 = getelementptr i8, ptr %11, i64 32
  br label %18

18:                                               ; preds = %.lr.ph, %18
  %indvars.iv = phi i64 [ 0, %.lr.ph ], [ %indvars.iv.next, %18 ]
  %.val28 = load ptr, ptr %11, align 8, !tbaa !15
  %.val29 = load ptr, ptr %17, align 8, !tbaa !16
  %19 = getelementptr i8, ptr %.val28, i64 32
  %.val28.val = load ptr, ptr %19, align 8, !tbaa !17
  %20 = getelementptr i8, ptr %.val28.val, i64 8
  %.val28.val.val = load ptr, ptr %20, align 8, !tbaa !31
  %21 = getelementptr inbounds nuw i32, ptr %.val29, i64 %indvars.iv
  %22 = load i32, ptr %21, align 4, !tbaa !32
  %23 = sext i32 %22 to i64
  %24 = getelementptr inbounds ptr, ptr %.val28.val.val, i64 %23
  %25 = load ptr, ptr %24, align 8, !tbaa !33
  %26 = load ptr, ptr %13, align 8, !tbaa !50
  %27 = getelementptr inbounds nuw i8, ptr %25, i64 64
  %28 = load ptr, ptr %27, align 8, !tbaa !50
  tail call void @Abc_ObjAddFanin(ptr noundef %26, ptr noundef %28) #20
  %indvars.iv.next = add nuw nsw i64 %indvars.iv, 1
  %.val = load i32, ptr %12, align 4, !tbaa !9
  %29 = sext i32 %.val to i64
  %30 = icmp slt i64 %indvars.iv.next, %29
  br i1 %30, label %18, label %.critedge2, !llvm.loop !90

31:                                               ; preds = %9
  %32 = tail call ptr @Abc_NtkBddDecompose(ptr noundef %1, ptr noundef nonnull %11, i32 noundef %2, i32 noundef %3)
  store ptr %32, ptr %13, align 8, !tbaa !50
  br label %.critedge2

.critedge2:                                       ; preds = %18, %14, %31
  %indvars.iv.next39 = add nuw nsw i64 %indvars.iv38, 1
  %.val30 = load i32, ptr %6, align 4, !tbaa !3
  %33 = sext i32 %.val30 to i64
  %34 = icmp slt i64 %indvars.iv.next39, %33
  br i1 %34, label %9, label %.critedge, !llvm.loop !91

.critedge:                                        ; preds = %.critedge2, %4
  %35 = getelementptr inbounds nuw i8, ptr %5, i64 8
  %36 = load ptr, ptr %35, align 8, !tbaa !31
  %.not.i = icmp eq ptr %36, null
  br i1 %.not.i, label %Vec_PtrFree.exit, label %37

37:                                               ; preds = %.critedge
  tail call void @free(ptr noundef nonnull %36) #20
  br label %Vec_PtrFree.exit

Vec_PtrFree.exit:                                 ; preds = %.critedge, %37
  tail call void @free(ptr noundef nonnull %5) #20
  ret void
}